target datalayout = "e-m:e-p270:32:32-p271:32:32-p272:64:64-i64:64-i128:128-f80:128-n8:16:32:64-S128"
target triple = "x86_64-pc-linux-gnu"

%"class.llvm::SmallVectorBase" = type { ptr, i32, i32 }
%"class.llvm::MachineOperand" = type { i32, %union.anon.285, ptr, %"union.llvm::MachineOperand::ContentsUnion" }
%union.anon.285 = type { i32 }
%"union.llvm::MachineOperand::ContentsUnion" = type { %"class.llvm::ArrayRef.286" }
%"class.llvm::ArrayRef.286" = type { ptr, i64 }

; Function Attrs: mustprogress nounwind uwtable
define linkonce_odr hidden noundef ptr @_ZN4llvm25SmallVectorTemplateCommonINS_14MachineOperandEvE5beginEv(ptr noundef nonnull align 8 dereferenceable(16) %0) #0 comdat align 2 {
  %2 = alloca ptr, align 8
  store ptr %0, ptr %2, align 8
  %3 = load ptr, ptr %2, align 8
  %4 = getelementptr inbounds nuw %"class.llvm::SmallVectorBase", ptr %3, i32 0, i32 0
  %5 = load ptr, ptr %4, align 8
  ret ptr %5
}

; Function Attrs: mustprogress nounwind uwtable
define linkonce_odr hidden void @_ZN4llvm14MachineOperand6setImmEl(ptr noundef nonnull align 8 dereferenceable(32) %0, i64 noundef %1) #0 comdat align 2 {
  %3 = alloca ptr, align 8
  %4 = alloca i64, align 8
  store ptr %0, ptr %3, align 8
  store i64 %1, ptr %4, align 8
  %5 = load ptr, ptr %3, align 8
  %6 = load i64, ptr %4, align 8
  %7 = getelementptr inbounds nuw %"class.llvm::MachineOperand", ptr %5, i32 0, i32 3
  store i64 %6, ptr %7, align 8
  ret void
}

; Function Attrs: mustprogress nounwind uwtable
define internal noundef i32 @_ZN4llvm9AArch64CCL19getInvertedCondCodeENS0_8CondCodeE(i32 noundef %0) #0 {
  %2 = alloca i32, align 4
  store i32 %0, ptr %2, align 4
  %3 = load i32, ptr %2, align 4
  %4 = xor i32 %3, 1
  ret i32 %4
}

; Function Attrs: mustprogress nounwind uwtable
define linkonce_odr hidden noundef i64 @_ZNK4llvm14MachineOperand6getImmEv(ptr noundef nonnull align 8 dereferenceable(32) %0) #0 comdat align 2 {
  %2 = alloca ptr, align 8
  store ptr %0, ptr %2, align 8
  %3 = load ptr, ptr %2, align 8
  %4 = getelementptr inbounds nuw %"class.llvm::MachineOperand", ptr %3, i32 0, i32 3
  %5 = load i64, ptr %4, align 8
  ret i64 %5
}

; Function Attrs: mustprogress nounwind uwtable
define linkonce_odr hidden noundef nonnull align 8 dereferenceable(32) ptr @_ZN4llvm25SmallVectorTemplateCommonINS_14MachineOperandEvEixEm(ptr noundef nonnull align 8 dereferenceable(16) %0, i64 noundef %1) #0 comdat align 2 {
  %3 = alloca ptr, align 8
  %4 = alloca i64, align 8
  store ptr %0, ptr %3, align 8
  store i64 %1, ptr %4, align 8
  %5 = load ptr, ptr %3, align 8
  %6 = call noundef ptr @_ZN4llvm25SmallVectorTemplateCommonINS_14MachineOperandEvE5beginEv(ptr noundef nonnull align 8 dereferenceable(16) %5)
  %7 = load i64, ptr %4, align 8
  %8 = getelementptr inbounds %"class.llvm::MachineOperand", ptr %6, i64 %7
  ret ptr %8
}

; Function Attrs: mustprogress nounwind uwtable
define dso_local noundef zeroext i1 @_ZNK4llvm16AArch64InstrInfo22reverseBranchConditionERNS_15SmallVectorImplINS_14MachineOperandEEE(ptr noundef nonnull align 8 dereferenceable(408) %0, ptr noundef nonnull align 8 dereferenceable(16) %1) unnamed_addr #0 align 2 {
  %3 = alloca ptr, align 8
  %4 = alloca ptr, align 8
  %5 = alloca i32, align 4
  store ptr %0, ptr %3, align 8
  store ptr %1, ptr %4, align 8
  %6 = load ptr, ptr %4, align 8
  %7 = call noundef nonnull align 8 dereferenceable(32) ptr @_ZN4llvm25SmallVectorTemplateCommonINS_14MachineOperandEvEixEm(ptr noundef nonnull align 8 dereferenceable(16) %6, i64 noundef 0)
  %8 = call noundef i64 @_ZNK4llvm14MachineOperand6getImmEv(ptr noundef nonnull align 8 dereferenceable(32) %7)
  %9 = icmp ne i64 %8, -1
  br i1 %9, label %10, label %20

10:                                               ; preds = %2
  %11 = load ptr, ptr %4, align 8
  %12 = call noundef nonnull align 8 dereferenceable(32) ptr @_ZN4llvm25SmallVectorTemplateCommonINS_14MachineOperandEvEixEm(ptr noundef nonnull align 8 dereferenceable(16) %11, i64 noundef 0)
  %13 = call noundef i64 @_ZNK4llvm14MachineOperand6getImmEv(ptr noundef nonnull align 8 dereferenceable(32) %12)
  %14 = trunc i64 %13 to i32
  store i32 %14, ptr %5, align 4
  %15 = load ptr, ptr %4, align 8
  %16 = call noundef nonnull align 8 dereferenceable(32) ptr @_ZN4llvm25SmallVectorTemplateCommonINS_14MachineOperandEvEixEm(ptr noundef nonnull align 8 dereferenceable(16) %15, i64 noundef 0)
  %17 = load i32, ptr %5, align 4
  %18 = call noundef i32 @_ZN4llvm9AArch64CCL19getInvertedCondCodeENS0_8CondCodeE(i32 noundef %17)
  %19 = zext i32 %18 to i64
  call void @_ZN4llvm14MachineOperand6setImmEl(ptr noundef nonnull align 8 dereferenceable(32) %16, i64 noundef %19)
  br label %50

20:                                               ; preds = %2
  %21 = load ptr, ptr %4, align 8
  %22 = call noundef nonnull align 8 dereferenceable(32) ptr @_ZN4llvm25SmallVectorTemplateCommonINS_14MachineOperandEvEixEm(ptr noundef nonnull align 8 dereferenceable(16) %21, i64 noundef 1)
  %23 = call noundef i64 @_ZNK4llvm14MachineOperand6getImmEv(ptr noundef nonnull align 8 dereferenceable(32) %22)
  switch i64 %23, label %24 [
    i64 1833, label %25
    i64 1831, label %28
    i64 1834, label %31
    i64 1832, label %34
    i64 7015, label %37
    i64 6997, label %40
    i64 7016, label %43
    i64 6998, label %46
  ]

24:                                               ; preds = %20
  unreachable

25:                                               ; preds = %20
  %26 = load ptr, ptr %4, align 8
  %27 = call noundef nonnull align 8 dereferenceable(32) ptr @_ZN4llvm25SmallVectorTemplateCommonINS_14MachineOperandEvEixEm(ptr noundef nonnull align 8 dereferenceable(16) %26, i64 noundef 1)
  call void @_ZN4llvm14MachineOperand6setImmEl(ptr noundef nonnull align 8 dereferenceable(32) %27, i64 noundef 1831)
  br label %49

28:                                               ; preds = %20
  %29 = load ptr, ptr %4, align 8
  %30 = call noundef nonnull align 8 dereferenceable(32) ptr @_ZN4llvm25SmallVectorTemplateCommonINS_14MachineOperandEvEixEm(ptr noundef nonnull align 8 dereferenceable(16) %29, i64 noundef 1)
  call void @_ZN4llvm14MachineOperand6setImmEl(ptr noundef nonnull align 8 dereferenceable(32) %30, i64 noundef 1833)
  br label %49

31:                                               ; preds = %20
  %32 = load ptr, ptr %4, align 8
  %33 = call noundef nonnull align 8 dereferenceable(32) ptr @_ZN4llvm25SmallVectorTemplateCommonINS_14MachineOperandEvEixEm(ptr noundef nonnull align 8 dereferenceable(16) %32, i64 noundef 1)
  call void @_ZN4llvm14MachineOperand6setImmEl(ptr noundef nonnull align 8 dereferenceable(32) %33, i64 noundef 1832)
  br label %49

34:                                               ; preds = %20
  %35 = load ptr, ptr %4, align 8
  %36 = call noundef nonnull align 8 dereferenceable(32) ptr @_ZN4llvm25SmallVectorTemplateCommonINS_14MachineOperandEvEixEm(ptr noundef nonnull align 8 dereferenceable(16) %35, i64 noundef 1)
  call void @_ZN4llvm14MachineOperand6setImmEl(ptr noundef nonnull align 8 dereferenceable(32) %36, i64 noundef 1834)
  br label %49

37:                                               ; preds = %20
  %38 = load ptr, ptr %4, align 8
  %39 = call noundef nonnull align 8 dereferenceable(32) ptr @_ZN4llvm25SmallVectorTemplateCommonINS_14MachineOperandEvEixEm(ptr noundef nonnull align 8 dereferenceable(16) %38, i64 noundef 1)
  call void @_ZN4llvm14MachineOperand6setImmEl(ptr noundef nonnull align 8 dereferenceable(32) %39, i64 noundef 6997)
  br label %49

40:                                               ; preds = %20
  %41 = load ptr, ptr %4, align 8
  %42 = call noundef nonnull align 8 dereferenceable(32) ptr @_ZN4llvm25SmallVectorTemplateCommonINS_14MachineOperandEvEixEm(ptr noundef nonnull align 8 dereferenceable(16) %41, i64 noundef 1)
  call void @_ZN4llvm14MachineOperand6setImmEl(ptr noundef nonnull align 8 dereferenceable(32) %42, i64 noundef 7015)
  br label %49

43:                                               ; preds = %20
  %44 = load ptr, ptr %4, align 8
  %45 = call noundef nonnull align 8 dereferenceable(32) ptr @_ZN4llvm25SmallVectorTemplateCommonINS_14MachineOperandEvEixEm(ptr noundef nonnull align 8 dereferenceable(16) %44, i64 noundef 1)
  call void @_ZN4llvm14MachineOperand6setImmEl(ptr noundef nonnull align 8 dereferenceable(32) %45, i64 noundef 6998)
  br label %49

46:                                               ; preds = %20
  %47 = load ptr, ptr %4, align 8
  %48 = call noundef nonnull align 8 dereferenceable(32) ptr @_ZN4llvm25SmallVectorTemplateCommonINS_14MachineOperandEvEixEm(ptr noundef nonnull align 8 dereferenceable(16) %47, i64 noundef 1)
  call void @_ZN4llvm14MachineOperand6setImmEl(ptr noundef nonnull align 8 dereferenceable(32) %48, i64 noundef 7016)
  br label %49

49:                                               ; preds = %46, %43, %40, %37, %34, %31, %28, %25
  br label %50

50:                                               ; preds = %49, %10
  ret i1 false
}