; Function Attrs: mustprogress nofree norecurse nosync nounwind willreturn memory(readwrite, inaccessiblemem: none) uwtable
define dso_local noundef zeroext i1 @_ZNK4llvm16AArch64InstrInfo22reverseBranchConditionERNS_15SmallVectorImplINS_14MachineOperandEEE(ptr nocapture nonnull readnone align 8 %0, ptr nocapture noundef nonnull readonly align 8 dereferenceable(16) %1) unnamed_addr #8 align 2 {
  %3 = load ptr, ptr %1, align 8
  %4 = getelementptr inbounds nuw i8, ptr %3, i64 16
  %5 = load i64, ptr %4, align 8
  %.not = icmp eq i64 %5, -1
  br i1 %.not, label %9, label %6

6:                                                ; preds = %2
  %7 = and i64 %5, 4294967295
  %8 = xor i64 %7, 1
  store i64 %8, ptr %4, align 8
  br label %21

9:                                                ; preds = %2
  %10 = getelementptr inbounds i8, ptr %3, i64 48
  %11 = load i64, ptr %10, align 8
  switch i64 %11, label %12 [
    i64 1833, label %13
    i64 1831, label %14
    i64 1834, label %15
    i64 1832, label %16
    i64 7015, label %17
    i64 6997, label %18
    i64 7016, label %19
    i64 6998, label %20
  ]

12:                                               ; preds = %9
  unreachable

13:                                               ; preds = %9
  store i64 1831, ptr %10, align 8
  br label %21

14:                                               ; preds = %9
  store i64 1833, ptr %10, align 8
  br label %21

15:                                               ; preds = %9
  store i64 1832, ptr %10, align 8
  br label %21

16:                                               ; preds = %9
  store i64 1834, ptr %10, align 8
  br label %21

17:                                               ; preds = %9
  store i64 6997, ptr %10, align 8
  br label %21

18:                                               ; preds = %9
  store i64 7015, ptr %10, align 8
  br label %21

19:                                               ; preds = %9
  store i64 6998, ptr %10, align 8
  br label %21

20:                                               ; preds = %9
  store i64 7016, ptr %10, align 8
  br label %21

21:                                               ; preds = %13, %14, %15, %16, %17, %18, %19, %20, %6
  ret i1 false
}